; ModuleID = '10/1755.c'
source_filename = "10/1755.c"
target datalayout = "e-m:e-p270:32:32-p271:32:32-p272:64:64-i64:64-f80:128-n8:16:32:64-S128"
target triple = "x86_64-pc-linux-gnu"

@.str = private unnamed_addr constant [3 x i8] c"%d\00", align 1
@.str.1 = private unnamed_addr constant [4 x i8] c"%d\0A\00", align 1

; Function Attrs: noinline nounwind uwtable
define dso_local i32 @main() #0 {
  %1 = alloca i32, align 4
  %2 = alloca i32, align 4
  %3 = alloca [25 x i32], align 16
  %4 = alloca [25 x i32], align 16
  %5 = alloca i32, align 4
  %6 = alloca i32, align 4
  %7 = alloca i32, align 4
  store i32 0, i32* %1, align 4
  %8 = bitcast [25 x i32]* %4 to i8*
  call void @llvm.memset.p0i8.i64(i8* align 16 %8, i8 0, i64 100, i1 false)
  %9 = call i32 (i8*, ...) @__isoc99_scanf(i8* getelementptr inbounds ([3 x i8], [3 x i8]* @.str, i64 0, i64 0), i32* %2)
  store i32 0, i32* %5, align 4
  br label %10

10:                                               ; preds = %20, %0
  %11 = load i32, i32* %5, align 4
  %12 = load i32, i32* %2, align 4
  %13 = icmp slt i32 %11, %12
  br i1 %13, label %14, label %23

14:                                               ; preds = %10
  %15 = getelementptr inbounds [25 x i32], [25 x i32]* %3, i64 0, i64 0
  %16 = load i32, i32* %5, align 4
  %17 = sext i32 %16 to i64
  %18 = getelementptr inbounds i32, i32* %15, i64 %17
  %19 = call i32 (i8*, ...) @__isoc99_scanf(i8* getelementptr inbounds ([3 x i8], [3 x i8]* @.str, i64 0, i64 0), i32* %18)
  br label %20

20:                                               ; preds = %14
  %21 = load i32, i32* %5, align 4
  %22 = add nsw i32 %21, 1
  store i32 %22, i32* %5, align 4
  br label %10

23:                                               ; preds = %10
  %24 = getelementptr inbounds [25 x i32], [25 x i32]* %4, i64 0, i64 24
  store i32 1, i32* %24, align 16
  store i32 1, i32* %6, align 4
  store i32 23, i32* %5, align 4
  br label %25

25:                                               ; preds = %40, %23
  %26 = load i32, i32* %5, align 4
  %27 = icmp sge i32 %26, 0
  br i1 %27, label %28, label %43

28:                                               ; preds = %25
  %29 = getelementptr inbounds [25 x i32], [25 x i32]* %3, i64 0, i64 0
  %30 = getelementptr inbounds [25 x i32], [25 x i32]* %4, i64 0, i64 0
  %31 = load i32, i32* %5, align 4
  %32 = load i32, i32* %2, align 4
  %33 = call i32 @analyse(i32* %29, i32* %30, i32 %31, i32 %32)
  store i32 %33, i32* %7, align 4
  %34 = load i32, i32* %7, align 4
  %35 = load i32, i32* %6, align 4
  %36 = icmp sgt i32 %34, %35
  br i1 %36, label %37, label %39

37:                                               ; preds = %28
  %38 = load i32, i32* %7, align 4
  store i32 %38, i32* %6, align 4
  br label %39

39:                                               ; preds = %37, %28
  br label %40

40:                                               ; preds = %39
  %41 = load i32, i32* %5, align 4
  %42 = add nsw i32 %41, -1
  store i32 %42, i32* %5, align 4
  br label %25

43:                                               ; preds = %25
  %44 = load i32, i32* %6, align 4
  %45 = call i32 (i8*, ...) @printf(i8* getelementptr inbounds ([4 x i8], [4 x i8]* @.str.1, i64 0, i64 0), i32 %44)
  ret i32 0
}

; Function Attrs: argmemonly nounwind willreturn
declare void @llvm.memset.p0i8.i64(i8* nocapture writeonly, i8, i64, i1 immarg) #1

declare dso_local i32 @__isoc99_scanf(i8*, ...) #2

; Function Attrs: noinline nounwind uwtable
define dso_local i32 @analyse(i32* %0, i32* %1, i32 %2, i32 %3) #0 {
  %5 = alloca i32*, align 8
  %6 = alloca i32*, align 8
  %7 = alloca i32, align 4
  %8 = alloca i32, align 4
  %9 = alloca i32, align 4
  %10 = alloca i32, align 4
  %11 = alloca i32, align 4
  store i32* %0, i32** %5, align 8
  store i32* %1, i32** %6, align 8
  store i32 %2, i32* %7, align 4
  store i32 %3, i32* %8, align 4
  store i32 0, i32* %9, align 4
  %12 = load i32, i32* %8, align 4
  %13 = sub nsw i32 %12, 1
  store i32 %13, i32* %11, align 4
  br label %14

14:                                               ; preds = %43, %4
  %15 = load i32, i32* %11, align 4
  %16 = load i32, i32* %7, align 4
  %17 = icmp sgt i32 %15, %16
  br i1 %17, label %18, label %46

18:                                               ; preds = %14
  %19 = load i32*, i32** %5, align 8
  %20 = load i32, i32* %7, align 4
  %21 = sext i32 %20 to i64
  %22 = getelementptr inbounds i32, i32* %19, i64 %21
  %23 = load i32, i32* %22, align 4
  %24 = load i32*, i32** %5, align 8
  %25 = load i32, i32* %11, align 4
  %26 = sext i32 %25 to i64
  %27 = getelementptr inbounds i32, i32* %24, i64 %26
  %28 = load i32, i32* %27, align 4
  %29 = icmp sge i32 %23, %28
  br i1 %29, label %30, label %42

30:                                               ; preds = %18
  %31 = load i32*, i32** %6, align 8
  %32 = load i32, i32* %11, align 4
  %33 = sext i32 %32 to i64
  %34 = getelementptr inbounds i32, i32* %31, i64 %33
  %35 = load i32, i32* %34, align 4
  store i32 %35, i32* %10, align 4
  %36 = load i32, i32* %10, align 4
  %37 = load i32, i32* %9, align 4
  %38 = icmp sgt i32 %36, %37
  br i1 %38, label %39, label %41

39:                                               ; preds = %30
  %40 = load i32, i32* %10, align 4
  store i32 %40, i32* %9, align 4
  br label %41

41:                                               ; preds = %39, %30
  br label %42

42:                                               ; preds = %41, %18
  br label %43

43:                                               ; preds = %42
  %44 = load i32, i32* %11, align 4
  %45 = add nsw i32 %44, -1
  store i32 %45, i32* %11, align 4
  br label %14

46:                                               ; preds = %14
  %47 = load i32, i32* %9, align 4
  %48 = add nsw i32 %47, 1
  store i32 %48, i32* %9, align 4
  %49 = load i32, i32* %9, align 4
  %50 = load i32*, i32** %6, align 8
  %51 = load i32, i32* %7, align 4
  %52 = sext i32 %51 to i64
  %53 = getelementptr inbounds i32, i32* %50, i64 %52
  store i32 %49, i32* %53, align 4
  %54 = load i32, i32* %9, align 4
  ret i32 %54
}

declare dso_local i32 @printf(i8*, ...) #2


!llvm.module.flags = !{!0}
!llvm.ident = !{!1}

!0 = !{i32 1, !"wchar_size", i32 4}
!1 = !{!"clang version 10.0.0-4ubuntu1 "}
